; Function Attrs: mustprogress uwtable
define hidden void @_ZN3smt5setup10setup_charEv(ptr nocapture noundef nonnull readonly align 8 dereferenceable(33) %this) local_unnamed_addr #4 align 2 {
entry:
  %0 = load ptr, ptr %this, align 8
  %call = tail call noalias noundef ptr @_ZN6memory8allocateEm(i64 noundef 384)
  %1 = load ptr, ptr %this, align 8
  tail call void @_ZN3smt11theory_charC1ERNS_7contextE(ptr noundef nonnull align 8 dereferenceable(384) %call, ptr noundef nonnull align 8 dereferenceable(11616) %1)
  tail call void @_ZN3smt7context15register_pluginEPNS_6theoryE(ptr noundef nonnull align 8 dereferenceable(11616) %0, ptr noundef nonnull %call)
  ret void
}